target datalayout = "e-m:e-p270:32:32-p271:32:32-p272:64:64-i64:64-i128:128-f80:128-n8:16:32:64-S128"
target triple = "x86_64-pc-linux-gnu"

%struct.Vmem = type { ptr, i64, i64 }
%struct.ParseContext_ = type { %struct.TokenData, i32, %union.SourceSpan, %union.SourceSpan, ptr, %struct.Lexer }
%struct.TokenData = type { ptr, i64, %union.anon.86 }
%union.anon.86 = type { %struct.anon.89 }
%struct.anon.89 = type { %struct.Int128_, i8 }
%struct.Int128_ = type { i64, i64 }
%union.SourceSpan = type { i64 }
%struct.Lexer = type { ptr, ptr, ptr, ptr, i32, i32, ptr, ptr, ptr, %struct.TokenData, %union.SourceSpan, i32, i32 }
%struct.Ast_ = type { %union.SourceSpan, i32, i8, %union.anon.62 }
%union.anon.62 = type { %struct.AstDocDirective_ }
%struct.AstDocDirective_ = type { i8, %union.anon.65 }
%union.anon.65 = type { %struct.anon.66 }
%struct.anon.66 = type { ptr, %union.SourceSpan, i8 }
%struct.Expr_ = type { ptr, %union.SourceSpan, i16, %union.anon.30 }
%union.anon.30 = type { %struct.ExprAnySwitch }
%struct.ExprAnySwitch = type { i8, %union.anon.32 }
%union.anon.32 = type { %struct.anon.33 }
%struct.anon.33 = type { ptr, %union.SourceSpan, ptr }
%struct.anon.67 = type { ptr, ptr, ptr }

@ast_arena = external global %struct.Vmem, align 8
@.str.99 = private unnamed_addr constant [10 x i8] c"@ensure \22\00", align 1
@.str.100 = private unnamed_addr constant [11 x i8] c"@require \22\00", align 1
@.str.101 = private unnamed_addr constant [11 x i8] c"\22 violated\00", align 1
@.str.102 = private unnamed_addr constant [28 x i8] c"Expected a string after ':'\00", align 1
@.str.103 = private unnamed_addr constant [4 x i8] c": '\00", align 1
@.str.104 = private unnamed_addr constant [3 x i8] c"'.\00", align 1
@.str.105 = private unnamed_addr constant [2 x i8] c".\00", align 1

; Function Attrs: nounwind uwtable
define internal i32 @astid(ptr noundef %0) #0 {
  %2 = alloca ptr, align 8
  store ptr %0, ptr %2, align 8
  %3 = load ptr, ptr %2, align 8
  %4 = load ptr, ptr @ast_arena, align 8
  %5 = ptrtoint ptr %3 to i64
  %6 = ptrtoint ptr %4 to i64
  %7 = sub i64 %5, %6
  %8 = sdiv exact i64 %7, 48
  %9 = trunc i64 %8 to i32
  ret i32 %9
}

; Function Attrs: nounwind uwtable
define internal ptr @ast_calloc() #0 {
  %1 = call ptr @vmem_alloc(ptr noundef @ast_arena, i64 noundef 48)
  ret ptr %1
}

; Function Attrs: nounwind uwtable
define internal zeroext i1 @parse_doc_contract(ptr noundef %0, ptr noundef %1, ptr noundef %2, i32 noundef %3) #0 {
  %5 = alloca %union.SourceSpan, align 8
  %6 = alloca i32, align 4
  %7 = alloca ptr, align 8
  %8 = alloca i8, align 1
  %9 = alloca ptr, align 8
  %10 = alloca ptr, align 8
  %11 = alloca ptr, align 8
  %12 = alloca ptr, align 8
  %13 = alloca i32, align 4
  %14 = alloca ptr, align 8
  %15 = alloca ptr, align 8
  %16 = alloca ptr, align 8
  %17 = alloca i32, align 4
  %18 = alloca ptr, align 8
  %19 = alloca i32, align 4
  %20 = alloca i1, align 1
  %21 = alloca ptr, align 8
  %22 = alloca ptr, align 8
  %23 = alloca ptr, align 8
  %24 = alloca i32, align 4
  %25 = alloca ptr, align 8
  %26 = alloca ptr, align 8
  %27 = alloca ptr, align 8
  %28 = alloca ptr, align 8
  store ptr %0, ptr %21, align 8
  store ptr %1, ptr %22, align 8
  store ptr %2, ptr %23, align 8
  store i32 %3, ptr %24, align 4
  %29 = load ptr, ptr %21, align 8
  store ptr %29, ptr %12, align 8
  store i32 29, ptr %13, align 4
  %30 = load i32, ptr %13, align 4
  %31 = load ptr, ptr %12, align 8
  %32 = getelementptr inbounds %struct.ParseContext_, ptr %31, i32 0, i32 2
  %33 = load i64, ptr %32, align 8
  store i64 %33, ptr %5, align 8
  store i32 %30, ptr %6, align 4
  %34 = call ptr @ast_calloc()
  store ptr %34, ptr %7, align 8
  %35 = load ptr, ptr %7, align 8
  call void @llvm.memcpy.p0.p0.i64(ptr align 8 %35, ptr align 8 %5, i64 8, i1 false)
  %36 = load i32, ptr %6, align 4
  %37 = load ptr, ptr %7, align 8
  %38 = getelementptr inbounds %struct.Ast_, ptr %37, i32 0, i32 2
  %39 = trunc i32 %36 to i8
  store i8 %39, ptr %38, align 4
  %40 = load ptr, ptr %7, align 8
  store ptr %40, ptr %25, align 8
  %41 = load i32, ptr %24, align 4
  %42 = load ptr, ptr %25, align 8
  %43 = getelementptr inbounds %struct.Ast_, ptr %42, i32 0, i32 3
  %44 = trunc i32 %41 to i8
  %45 = load i8, ptr %43, align 8
  %46 = and i8 %44, 15
  %47 = and i8 %45, -16
  %48 = or i8 %47, %46
  store i8 %48, ptr %43, align 8
  %49 = load ptr, ptr %21, align 8
  %50 = getelementptr inbounds %struct.ParseContext_, ptr %49, i32 0, i32 5
  %51 = getelementptr inbounds %struct.Lexer, ptr %50, i32 0, i32 9
  %52 = getelementptr inbounds %struct.TokenData, ptr %51, i32 0, i32 0
  %53 = load ptr, ptr %52, align 8
  store ptr %53, ptr %26, align 8
  %54 = load ptr, ptr %21, align 8
  call void @advance(ptr noundef %54)
  %55 = load ptr, ptr %21, align 8
  %56 = call ptr @parse_expression_list(ptr noundef %55, i1 noundef zeroext false)
  store ptr %56, ptr %27, align 8
  %57 = load ptr, ptr %27, align 8
  store ptr %57, ptr %14, align 8
  %58 = load ptr, ptr %14, align 8
  %59 = icmp eq ptr %58, null
  br i1 %59, label %67, label %60

60:                                               ; preds = %4
  %61 = load ptr, ptr %14, align 8
  %62 = getelementptr inbounds %struct.Expr_, ptr %61, i32 0, i32 2
  %63 = load i16, ptr %62, align 8
  %64 = and i16 %63, 255
  %65 = zext i16 %64 to i32
  %66 = icmp ne i32 %65, 0
  br label %67

67:                                               ; preds = %60, %4
  %68 = phi i1 [ true, %4 ], [ %66, %60 ]
  br i1 %68, label %70, label %69

69:                                               ; preds = %67
  store i1 false, ptr %20, align 1
  br label %193

70:                                               ; preds = %67
  %71 = load ptr, ptr %27, align 8
  %72 = load ptr, ptr %25, align 8
  %73 = getelementptr inbounds %struct.Ast_, ptr %72, i32 0, i32 3
  %74 = getelementptr inbounds %struct.AstDocDirective_, ptr %73, i32 0, i32 1
  %75 = getelementptr inbounds %struct.anon.67, ptr %74, i32 0, i32 0
  store ptr %71, ptr %75, align 8
  %76 = load ptr, ptr %26, align 8
  %77 = getelementptr inbounds i8, ptr %76, i64 1
  store ptr %77, ptr %28, align 8
  br label %78

78:                                               ; preds = %92, %70
  %79 = load ptr, ptr %28, align 8
  %80 = getelementptr inbounds i8, ptr %79, i64 0
  %81 = load i8, ptr %80, align 1
  %82 = sext i8 %81 to i32
  %83 = icmp ne i32 %82, 10
  br i1 %83, label %84, label %90

84:                                               ; preds = %78
  %85 = load ptr, ptr %28, align 8
  %86 = getelementptr inbounds i8, ptr %85, i64 0
  %87 = load i8, ptr %86, align 1
  %88 = sext i8 %87 to i32
  %89 = icmp ne i32 %88, 0
  br label %90

90:                                               ; preds = %84, %78
  %91 = phi i1 [ false, %78 ], [ %89, %84 ]
  br i1 %91, label %92, label %95

92:                                               ; preds = %90
  %93 = load ptr, ptr %28, align 8
  %94 = getelementptr inbounds i8, ptr %93, i32 1
  store ptr %94, ptr %28, align 8
  br label %78, !llvm.loop !29

95:                                               ; preds = %90
  %96 = load ptr, ptr %28, align 8
  %97 = load ptr, ptr %21, align 8
  %98 = getelementptr inbounds %struct.ParseContext_, ptr %97, i32 0, i32 0
  %99 = getelementptr inbounds %struct.TokenData, ptr %98, i32 0, i32 0
  %100 = load ptr, ptr %99, align 8
  %101 = icmp ugt ptr %96, %100
  br i1 %101, label %102, label %107

102:                                              ; preds = %95
  %103 = load ptr, ptr %21, align 8
  %104 = getelementptr inbounds %struct.ParseContext_, ptr %103, i32 0, i32 0
  %105 = getelementptr inbounds %struct.TokenData, ptr %104, i32 0, i32 0
  %106 = load ptr, ptr %105, align 8
  store ptr %106, ptr %28, align 8
  br label %107

107:                                              ; preds = %102, %95
  br label %108

108:                                              ; preds = %121, %107
  %109 = load ptr, ptr %28, align 8
  %110 = getelementptr inbounds i8, ptr %109, i64 -1
  %111 = load i8, ptr %110, align 1
  store i8 %111, ptr %8, align 1
  %112 = load i8, ptr %8, align 1
  %113 = sext i8 %112 to i32
  %114 = icmp eq i32 %113, 32
  br i1 %114, label %119, label %115

115:                                              ; preds = %108
  %116 = load i8, ptr %8, align 1
  %117 = sext i8 %116 to i32
  %118 = icmp eq i32 %117, 9
  br label %119

119:                                              ; preds = %115, %108
  %120 = phi i1 [ true, %108 ], [ %118, %115 ]
  br i1 %120, label %121, label %124

121:                                              ; preds = %119
  %122 = load ptr, ptr %28, align 8
  %123 = getelementptr inbounds i8, ptr %122, i32 -1
  store ptr %123, ptr %28, align 8
  br label %108, !llvm.loop !30

124:                                              ; preds = %119
  call void @scratch_buffer_clear()
  %125 = load i32, ptr %24, align 4
  switch i32 %125, label %127 [
    i32 5, label %126
  ]

126:                                              ; preds = %124
  call void @scratch_buffer_append(ptr noundef @.str.99)
  br label %128

127:                                              ; preds = %124
  call void @scratch_buffer_append(ptr noundef @.str.100)
  br label %128

128:                                              ; preds = %127, %126
  %129 = load ptr, ptr %26, align 8
  %130 = load ptr, ptr %28, align 8
  %131 = load ptr, ptr %26, align 8
  %132 = ptrtoint ptr %130 to i64
  %133 = ptrtoint ptr %131 to i64
  %134 = sub i64 %132, %133
  call void @scratch_buffer_append_len(ptr noundef %129, i64 noundef %134)
  call void @scratch_buffer_append(ptr noundef @.str.101)
  %135 = load ptr, ptr %21, align 8
  %136 = call zeroext i1 @try_consume(ptr noundef %135, i32 noundef 7)
  br i1 %136, label %137, label %150

137:                                              ; preds = %128
  %138 = load ptr, ptr %21, align 8
  store ptr %138, ptr %16, align 8
  store i32 76, ptr %17, align 4
  %139 = load ptr, ptr %16, align 8
  %140 = getelementptr inbounds %struct.ParseContext_, ptr %139, i32 0, i32 1
  %141 = load i32, ptr %140, align 8
  %142 = load i32, ptr %17, align 4
  %143 = icmp eq i32 %141, %142
  br i1 %143, label %149, label %144

144:                                              ; preds = %137
  %145 = load ptr, ptr %21, align 8
  %146 = getelementptr inbounds %struct.ParseContext_, ptr %145, i32 0, i32 3
  %147 = getelementptr inbounds %union.SourceSpan, ptr %146, i32 0, i32 0
  %148 = load i64, ptr %147, align 8
  call void (i64, ptr, ...) @sema_error_at(i64 %148, ptr noundef @.str.102)
  store i1 false, ptr %20, align 1
  br label %193

149:                                              ; preds = %137
  br label %150

150:                                              ; preds = %149, %128
  %151 = load ptr, ptr %21, align 8
  store ptr %151, ptr %18, align 8
  store i32 76, ptr %19, align 4
  %152 = load ptr, ptr %18, align 8
  %153 = getelementptr inbounds %struct.ParseContext_, ptr %152, i32 0, i32 1
  %154 = load i32, ptr %153, align 8
  %155 = load i32, ptr %19, align 4
  %156 = icmp eq i32 %154, %155
  br i1 %156, label %157, label %168

157:                                              ; preds = %150
  call void @scratch_buffer_append(ptr noundef @.str.103)
  %158 = load ptr, ptr %21, align 8
  store ptr %158, ptr %15, align 8
  %159 = load ptr, ptr %15, align 8
  %160 = getelementptr inbounds %struct.TokenData, ptr %159, i32 0, i32 2
  %161 = load ptr, ptr %160, align 8
  call void @scratch_buffer_append(ptr noundef %161)
  call void @scratch_buffer_append(ptr noundef @.str.104)
  %162 = call ptr @scratch_buffer_copy()
  %163 = load ptr, ptr %25, align 8
  %164 = getelementptr inbounds %struct.Ast_, ptr %163, i32 0, i32 3
  %165 = getelementptr inbounds %struct.AstDocDirective_, ptr %164, i32 0, i32 1
  %166 = getelementptr inbounds %struct.anon.67, ptr %165, i32 0, i32 1
  store ptr %162, ptr %166, align 8
  %167 = load ptr, ptr %21, align 8
  call void @advance(ptr noundef %167)
  br label %174

168:                                              ; preds = %150
  call void @scratch_buffer_append(ptr noundef @.str.105)
  %169 = call ptr @scratch_buffer_copy()
  %170 = load ptr, ptr %25, align 8
  %171 = getelementptr inbounds %struct.Ast_, ptr %170, i32 0, i32 3
  %172 = getelementptr inbounds %struct.AstDocDirective_, ptr %171, i32 0, i32 1
  %173 = getelementptr inbounds %struct.anon.67, ptr %172, i32 0, i32 2
  store ptr %169, ptr %173, align 8
  br label %174

174:                                              ; preds = %168, %157
  %175 = load ptr, ptr %23, align 8
  %176 = load ptr, ptr %22, align 8
  %177 = load ptr, ptr %25, align 8
  store ptr %175, ptr %9, align 8
  store ptr %176, ptr %10, align 8
  store ptr %177, ptr %11, align 8
  %178 = load ptr, ptr %10, align 8
  %179 = load i32, ptr %178, align 4
  %180 = icmp ne i32 %179, 0
  br i1 %180, label %185, label %181

181:                                              ; preds = %174
  %182 = load ptr, ptr %11, align 8
  %183 = call i32 @astid(ptr noundef %182)
  %184 = load ptr, ptr %10, align 8
  store i32 %183, ptr %184, align 4
  br label %185

185:                                              ; preds = %181, %174
  %186 = load ptr, ptr %11, align 8
  %187 = call i32 @astid(ptr noundef %186)
  %188 = load ptr, ptr %9, align 8
  %189 = load ptr, ptr %188, align 8
  store i32 %187, ptr %189, align 4
  %190 = load ptr, ptr %11, align 8
  %191 = getelementptr inbounds %struct.Ast_, ptr %190, i32 0, i32 1
  %192 = load ptr, ptr %9, align 8
  store ptr %191, ptr %192, align 8
  store i1 true, ptr %20, align 1
  br label %193

193:                                              ; preds = %185, %144, %69
  %194 = load i1, ptr %20, align 1
  ret i1 %194
}