; Function Attrs: nounwind uwtable
define internal fastcc noundef zeroext i1 @parse_doc_contract(ptr noundef %0, ptr nocapture noundef %1, ptr nocapture noundef %2, i32 noundef %3) unnamed_addr #0 {
  %5 = getelementptr inbounds i8, ptr %0, i64 48
  %6 = load i64, ptr %5, align 8
  %7 = tail call ptr @vmem_alloc(ptr noundef nonnull @ast_arena, i64 noundef 48) #8
  store i64 %6, ptr %7, align 8
  %8 = getelementptr inbounds i8, ptr %7, i64 12
  store i8 29, ptr %8, align 4
  %9 = getelementptr inbounds i8, ptr %7, i64 16
  %10 = trunc nuw nsw i32 %3 to i8
  %11 = load i8, ptr %9, align 8
  %12 = and i8 %10, 15
  %13 = and i8 %11, -16
  %14 = or disjoint i8 %13, %12
  store i8 %14, ptr %9, align 8
  %15 = getelementptr inbounds i8, ptr %0, i64 136
  %16 = load ptr, ptr %15, align 8
  tail call void @advance(ptr noundef %0) #8
  %17 = tail call ptr @parse_expression_list(ptr noundef %0, i1 noundef zeroext false) #8
  %18 = icmp eq ptr %17, null
  br i1 %18, label %.critedge, label %19

19:                                               ; preds = %4
  %20 = getelementptr inbounds i8, ptr %17, i64 16
  %21 = load i16, ptr %20, align 8
  %22 = and i16 %21, 255
  %.not = icmp eq i16 %22, 0
  br i1 %.not, label %68, label %.critedge

.critedge:                                        ; preds = %4, %19
  %23 = getelementptr inbounds i8, ptr %7, i64 24
  store ptr %17, ptr %23, align 8
  br label %24

24:                                               ; preds = %24, %.critedge
  %.pn = phi ptr [ %16, %.critedge ], [ %.0, %24 ]
  %.0 = getelementptr inbounds i8, ptr %.pn, i64 1
  %25 = load i8, ptr %.0, align 1
  switch i8 %25, label %24 [
    i8 10, label %.critedge2
    i8 0, label %.critedge2
  ], !llvm.loop !31

.critedge2:                                       ; preds = %24, %24
  %26 = load ptr, ptr %0, align 8
  %27 = icmp ugt ptr %.0, %26
  %spec.select = select i1 %27, ptr %26, ptr %.0
  br label %28

28:                                               ; preds = %.backedge, %.critedge2
  %.2 = phi ptr [ %spec.select, %.critedge2 ], [ %29, %.backedge ]
  %29 = getelementptr inbounds i8, ptr %.2, i64 -1
  %30 = load i8, ptr %29, align 1
  switch i8 %30, label %31 [
    i8 32, label %.backedge
    i8 9, label %.backedge
  ]

.backedge:                                        ; preds = %28, %28
  br label %28, !llvm.loop !32

31:                                               ; preds = %28
  tail call void @scratch_buffer_clear() #8
  %cond = icmp eq i32 %3, 5
  %.str.99..str.100 = select i1 %cond, ptr @.str.99, ptr @.str.100
  tail call void @scratch_buffer_append(ptr noundef nonnull %.str.99..str.100) #8
  %32 = ptrtoint ptr %.2 to i64
  %33 = ptrtoint ptr %16 to i64
  %34 = sub i64 %32, %33
  tail call void @scratch_buffer_append_len(ptr noundef %16, i64 noundef %34) #8
  tail call void @scratch_buffer_append(ptr noundef nonnull @.str.101) #8
  %35 = tail call zeroext i1 @try_consume(ptr noundef nonnull %0, i32 noundef 7) #8
  %36 = getelementptr inbounds i8, ptr %0, i64 40
  %37 = load i32, ptr %36, align 8
  %38 = icmp eq i32 %37, 76
  br i1 %35, label %39, label %43

39:                                               ; preds = %31
  br i1 %38, label %.thread, label %40

40:                                               ; preds = %39
  %41 = getelementptr inbounds i8, ptr %0, i64 56
  %42 = load i64, ptr %41, align 8
  tail call void (i64, ptr, ...) @sema_error_at(i64 %42, ptr noundef nonnull @.str.102) #8
  br label %68

43:                                               ; preds = %31
  br i1 %38, label %.thread, label %48

.thread:                                          ; preds = %39, %43
  tail call void @scratch_buffer_append(ptr noundef nonnull @.str.103) #8
  %44 = getelementptr inbounds i8, ptr %0, i64 16
  %45 = load ptr, ptr %44, align 8
  tail call void @scratch_buffer_append(ptr noundef %45) #8
  tail call void @scratch_buffer_append(ptr noundef nonnull @.str.104) #8
  %46 = tail call ptr @scratch_buffer_copy() #8
  %47 = getelementptr inbounds i8, ptr %7, i64 32
  store ptr %46, ptr %47, align 8
  tail call void @advance(ptr noundef nonnull %0) #8
  br label %51

48:                                               ; preds = %43
  tail call void @scratch_buffer_append(ptr noundef nonnull @.str.105) #8
  %49 = tail call ptr @scratch_buffer_copy() #8
  %50 = getelementptr inbounds i8, ptr %7, i64 40
  store ptr %49, ptr %50, align 8
  br label %51

51:                                               ; preds = %48, %.thread
  %52 = load i32, ptr %1, align 4
  %.not63 = icmp eq i32 %52, 0
  br i1 %.not63, label %53, label %._crit_edge64

._crit_edge64:                                    ; preds = %51
  %.pre65 = ptrtoint ptr %7 to i64
  br label %60

53:                                               ; preds = %51
  %54 = load ptr, ptr @ast_arena, align 8
  %55 = ptrtoint ptr %7 to i64
  %56 = ptrtoint ptr %54 to i64
  %57 = sub i64 %55, %56
  %58 = sdiv exact i64 %57, 48
  %59 = trunc i64 %58 to i32
  store i32 %59, ptr %1, align 4
  br label %60

60:                                               ; preds = %._crit_edge64, %53
  %.pre-phi = phi i64 [ %.pre65, %._crit_edge64 ], [ %55, %53 ]
  %61 = load ptr, ptr @ast_arena, align 8
  %62 = ptrtoint ptr %61 to i64
  %63 = sub i64 %.pre-phi, %62
  %64 = sdiv exact i64 %63, 48
  %65 = trunc i64 %64 to i32
  %66 = load ptr, ptr %2, align 8
  store i32 %65, ptr %66, align 4
  %67 = getelementptr inbounds i8, ptr %7, i64 8
  store ptr %67, ptr %2, align 8
  br label %68

68:                                               ; preds = %19, %60, %40
  %.057 = phi i1 [ true, %60 ], [ false, %40 ], [ false, %19 ]
  ret i1 %.057
}